(lp0
(S'cppflags'
p1
ccopy_reg
_reconstructor
p2
(cino.utils
SpaceList
p3
c__builtin__
list
p4
(lp5
S'-mmcu=atmega32u4'
p6
aS'-DF_CPU=16000000L'
p7
aS'-DARDUINO=105'
p8
aS'-I/Applications/Arduino.app/Contents/Resources/Java/hardware/arduino/cores/arduino'
p9
aS'-ffunction-sections'
p10
aS'-fdata-sections'
p11
aS'-g'
p12
aS'-Os'
p13
aS'-w'
p14
aS'-DUSB_VID=0x2341'
p15
aS'-DUSB_PID=0x8038'
p16
aS'-I/Applications/Arduino.app/Contents/Resources/Java/hardware/arduino/variants/robot_control'
p17
aS'-Ilib/SAT_Mag'
p18
aS'-Ilib/SAT_Mag/Processing'
p19
aS'-Ilib/SAT_Mag/Processing/processing_mag'
p20
aS'-Ilib/SAT_Mag/Processing/Processing_magField'
p21
aS'-Ilib/SAT_Lum'
p22
aS'-Ilib/SAT_Temp'
p23
aS'-Ilib/SAT_InfraTherm'
p24
aS'-Ilib/SAT_Geiger'
p25
aS'-Ilib/SAT_AppStorage'
p26
aS'-Ilib/I2C_Conv'
p27
aS'-I/Applications/Arduino.app/Contents/Resources/Java/libraries/Robot_Control'
p28
aS'-I/Applications/Arduino.app/Contents/Resources/Java/libraries/Robot_Control/utility'
p29
aS'-Ilib/EEPROM'
p30
aS'-Ilib/OnboardCommLayer'
p31
aS'-I/Applications/Arduino.app/Contents/Resources/Java/hardware/arduino/cores/arduino'
p32
aS'-I/Applications/Arduino.app/Contents/Resources/Java/hardware/arduino/cores/arduino/avr-libc'
p33
atp34
Rp35
tp36
a(S'arduino_variants_dir'
p37
S'/Applications/Arduino.app/Contents/Resources/Java/hardware/arduino/variants'
p38
tp39
a(S'version.txt'
p40
S'/Applications/Arduino.app/Contents/Resources/Java/lib/version.txt'
p41
tp42
a(S'used_libs'
p43
(lp44
S'lib/SAT_Mag'
p45
aS'lib/SAT_Lum'
p46
aS'lib/SAT_Temp'
p47
aS'lib/SAT_InfraTherm'
p48
aS'lib/SAT_Geiger'
p49
aS'lib/SAT_AppStorage'
p50
aS'lib/I2C_Conv'
p51
aS'/Applications/Arduino.app/Contents/Resources/Java/libraries/Robot_Control'
p52
aS'lib/EEPROM'
p53
aS'lib/OnboardCommLayer'
p54
aS'/Applications/Arduino.app/Contents/Resources/Java/hardware/arduino/cores/arduino'
p55
atp56
a(S'cc'
p57
S'/Applications/Arduino.app/Contents/Resources/Java/hardware/tools/avr/bin/avr-gcc'
p58
tp59
a(S'make'
p60
S'/Applications/Arduino.app/Contents/Resources/Java/hardware/tools/avr/bin/make'
p61
tp62
a(S'cflags'
p63
g2
(g3
g4
(lp64
tp65
Rp66
tp67
a(S'build_dir'
p68
S'.build/robotControl'
p69
tp70
a(S'arduino_core_dir'
p71
g55
tp72
a(S'boards.txt'
p73
S'/Applications/Arduino.app/Contents/Resources/Java/hardware/arduino/boards.txt'
p74
tp75
a(S'cxxflags'
p76
g2
(g3
g4
(lp77
S'-fno-exceptions'
p78
atp79
Rp80
tp81
a(S'cxx'
p82
S'/Applications/Arduino.app/Contents/Resources/Java/hardware/tools/avr/bin/avr-g++'
p83
tp84
a(S'ar'
p85
S'/Applications/Arduino.app/Contents/Resources/Java/hardware/tools/avr/bin/avr-ar'
p86
tp87
a(S'names'
p88
(dp89
S'cpp'
p90
S'%s.cpp'
p91
sS'obj'
p92
S'%s.o'
p93
sS'deps'
p94
S'%s.d'
p95
sS'lib'
p96
S'lib%s.a'
p97
stp98
a(S'deps'
p99
g2
(g3
g4
(lp100
S'.build/robotControl/src/dependencies.d'
p101
aS'.build/robotControl/OnboardCommLayer/dependencies.d'
p102
aS'.build/robotControl/arduino/dependencies.d'
p103
aS'.build/robotControl/SAT_Mag/dependencies.d'
p104
aS'.build/robotControl/Robot_Control/dependencies.d'
p105
aS'.build/robotControl/SAT_Lum/dependencies.d'
p106
aS'.build/robotControl/I2C_Conv/dependencies.d'
p107
aS'.build/robotControl/EEPROM/dependencies.d'
p108
aS'.build/robotControl/SAT_Temp/dependencies.d'
p109
aS'.build/robotControl/SAT_InfraTherm/dependencies.d'
p110
aS'.build/robotControl/SAT_Geiger/dependencies.d'
p111
aS'.build/robotControl/SAT_AppStorage/dependencies.d'
p112
atp113
Rp114
tp115
a(S'arduino_libraries_dir'
p116
S'/Applications/Arduino.app/Contents/Resources/Java/libraries'
p117
tp118
a(S'arduino_lib_version'
p119
g2
(cino.environment
Version
p120
c__builtin__
tuple
p121
(I1
I0
I5
tp122
tp123
Rp124
tp125
a(S'objcopy'
p126
S'/Applications/Arduino.app/Contents/Resources/Java/hardware/tools/avr/bin/avr-objcopy'
p127
tp128
a(S'board_models'
p129
cino.environment
BoardModels
p130
((lp131
(lp132
S'uno'
p133
a(dp134
S'bootloader'
p135
(dp136
S'extended_fuses'
p137
S'0x05'
p138
sS'high_fuses'
p139
S'0xde'
p140
sS'low_fuses'
p141
S'0xff'
p142
sS'lock_bits'
p143
S'0x0F'
p144
sS'file'
p145
S'optiboot_atmega328.hex'
p146
sS'path'
p147
S'optiboot'
p148
sS'unlock_bits'
p149
S'0x3F'
p150
ssS'upload'
p151
(dp152
S'protocol'
p153
S'arduino'
p154
sS'maximum_size'
p155
S'32256'
p156
sS'speed'
p157
S'115200'
p158
ssS'build'
p159
(dp160
S'core'
p161
S'arduino'
p162
sS'mcu'
p163
S'atmega328p'
p164
sS'f_cpu'
p165
S'16000000L'
p166
sS'variant'
p167
S'standard'
p168
ssS'name'
p169
S'Arduino Uno'
p170
saa(lp171
S'atmega328'
p172
a(dp173
S'bootloader'
p174
(dp175
S'extended_fuses'
p176
S'0x05'
p177
sS'high_fuses'
p178
S'0xDA'
p179
sS'low_fuses'
p180
S'0xFF'
p181
sS'lock_bits'
p182
S'0x0F'
p183
sS'file'
p184
S'ATmegaBOOT_168_atmega328.hex'
p185
sS'path'
p186
S'atmega'
p187
sS'unlock_bits'
p188
S'0x3F'
p189
ssS'upload'
p190
(dp191
S'protocol'
p192
S'arduino'
p193
sS'maximum_size'
p194
S'30720'
p195
sS'speed'
p196
S'57600'
p197
ssS'build'
p198
(dp199
S'core'
p200
S'arduino'
p201
sS'mcu'
p202
S'atmega328p'
p203
sS'f_cpu'
p204
S'16000000L'
p205
sS'variant'
p206
S'standard'
p207
ssS'name'
p208
S'Arduino Duemilanove w/ ATmega328'
p209
saa(lp210
S'diecimila'
p211
a(dp212
S'bootloader'
p213
(dp214
S'extended_fuses'
p215
S'0x00'
p216
sS'high_fuses'
p217
S'0xdd'
p218
sS'low_fuses'
p219
S'0xff'
p220
sS'lock_bits'
p221
S'0x0F'
p222
sS'file'
p223
S'ATmegaBOOT_168_diecimila.hex'
p224
sS'path'
p225
S'atmega'
p226
sS'unlock_bits'
p227
S'0x3F'
p228
ssS'upload'
p229
(dp230
S'protocol'
p231
S'arduino'
p232
sS'maximum_size'
p233
S'14336'
p234
sS'speed'
p235
S'19200'
p236
ssS'build'
p237
(dp238
S'core'
p239
S'arduino'
p240
sS'mcu'
p241
S'atmega168'
p242
sS'f_cpu'
p243
S'16000000L'
p244
sS'variant'
p245
S'standard'
p246
ssS'name'
p247
S'Arduino Diecimila or Duemilanove w/ ATmega168'
p248
saa(lp249
S'nano328'
p250
a(dp251
S'bootloader'
p252
(dp253
S'extended_fuses'
p254
S'0x05'
p255
sS'high_fuses'
p256
S'0xDA'
p257
sS'low_fuses'
p258
S'0xFF'
p259
sS'lock_bits'
p260
S'0x0F'
p261
sS'file'
p262
S'ATmegaBOOT_168_atmega328.hex'
p263
sS'path'
p264
S'atmega'
p265
sS'unlock_bits'
p266
S'0x3F'
p267
ssS'upload'
p268
(dp269
S'protocol'
p270
S'arduino'
p271
sS'maximum_size'
p272
S'30720'
p273
sS'speed'
p274
S'57600'
p275
ssS'build'
p276
(dp277
S'core'
p278
S'arduino'
p279
sS'mcu'
p280
S'atmega328p'
p281
sS'f_cpu'
p282
S'16000000L'
p283
sS'variant'
p284
S'eightanaloginputs'
p285
ssS'name'
p286
S'Arduino Nano w/ ATmega328'
p287
saa(lp288
S'nano'
p289
a(dp290
S'bootloader'
p291
(dp292
S'extended_fuses'
p293
S'0x00'
p294
sS'high_fuses'
p295
S'0xdd'
p296
sS'low_fuses'
p297
S'0xff'
p298
sS'lock_bits'
p299
S'0x0F'
p300
sS'file'
p301
S'ATmegaBOOT_168_diecimila.hex'
p302
sS'path'
p303
S'atmega'
p304
sS'unlock_bits'
p305
S'0x3F'
p306
ssS'upload'
p307
(dp308
S'protocol'
p309
S'arduino'
p310
sS'maximum_size'
p311
S'14336'
p312
sS'speed'
p313
S'19200'
p314
ssS'build'
p315
(dp316
S'core'
p317
S'arduino'
p318
sS'mcu'
p319
S'atmega168'
p320
sS'f_cpu'
p321
S'16000000L'
p322
sS'variant'
p323
S'eightanaloginputs'
p324
ssS'name'
p325
S'Arduino Nano w/ ATmega168'
p326
saa(lp327
S'mega2560'
p328
a(dp329
S'bootloader'
p330
(dp331
S'extended_fuses'
p332
S'0xFD'
p333
sS'high_fuses'
p334
S'0xD8'
p335
sS'low_fuses'
p336
S'0xFF'
p337
sS'lock_bits'
p338
S'0x0F'
p339
sS'file'
p340
S'stk500boot_v2_mega2560.hex'
p341
sS'path'
p342
S'stk500v2'
p343
sS'unlock_bits'
p344
S'0x3F'
p345
ssS'upload'
p346
(dp347
S'protocol'
p348
S'wiring'
p349
sS'maximum_size'
p350
S'258048'
p351
sS'speed'
p352
S'115200'
p353
ssS'build'
p354
(dp355
S'core'
p356
S'arduino'
p357
sS'mcu'
p358
S'atmega2560'
p359
sS'f_cpu'
p360
S'16000000L'
p361
sS'variant'
p362
S'mega'
p363
ssS'name'
p364
S'Arduino Mega 2560 or Mega ADK'
p365
saa(lp366
S'mega'
p367
a(dp368
S'bootloader'
p369
(dp370
S'extended_fuses'
p371
S'0xF5'
p372
sS'high_fuses'
p373
S'0xDA'
p374
sS'low_fuses'
p375
S'0xFF'
p376
sS'lock_bits'
p377
S'0x0F'
p378
sS'file'
p379
S'ATmegaBOOT_168_atmega1280.hex'
p380
sS'path'
p381
S'atmega'
p382
sS'unlock_bits'
p383
S'0x3F'
p384
ssS'upload'
p385
(dp386
S'protocol'
p387
S'arduino'
p388
sS'maximum_size'
p389
S'126976'
p390
sS'speed'
p391
S'57600'
p392
ssS'build'
p393
(dp394
S'core'
p395
S'arduino'
p396
sS'mcu'
p397
S'atmega1280'
p398
sS'f_cpu'
p399
S'16000000L'
p400
sS'variant'
p401
S'mega'
p402
ssS'name'
p403
S'Arduino Mega (ATmega1280)'
p404
saa(lp405
S'leonardo'
p406
a(dp407
S'bootloader'
p408
(dp409
S'extended_fuses'
p410
S'0xcb'
p411
sS'high_fuses'
p412
S'0xd8'
p413
sS'low_fuses'
p414
S'0xff'
p415
sS'lock_bits'
p416
S'0x2F'
p417
sS'file'
p418
S'Caterina-Leonardo.hex'
p419
sS'path'
p420
S'caterina'
p421
sS'unlock_bits'
p422
S'0x3F'
p423
ssS'upload'
p424
(dp425
S'protocol'
p426
S'avr109'
p427
sS'maximum_size'
p428
S'28672'
p429
sS'speed'
p430
S'57600'
p431
sS'disable_flushing'
p432
S'true'
p433
ssS'build'
p434
(dp435
S'core'
p436
S'arduino'
p437
sS'f_cpu'
p438
S'16000000L'
p439
sS'vid'
p440
S'0x2341'
p441
sS'pid'
p442
S'0x8036'
p443
sS'variant'
p444
S'leonardo'
p445
sS'mcu'
p446
S'atmega32u4'
p447
ssS'name'
p448
S'Arduino Leonardo'
p449
saa(lp450
S'esplora'
p451
a(dp452
S'bootloader'
p453
(dp454
S'extended_fuses'
p455
S'0xcb'
p456
sS'high_fuses'
p457
S'0xd8'
p458
sS'low_fuses'
p459
S'0xff'
p460
sS'lock_bits'
p461
S'0x2F'
p462
sS'file'
p463
S'Caterina-Esplora.hex'
p464
sS'path'
p465
S'caterina'
p466
sS'unlock_bits'
p467
S'0x3F'
p468
ssS'upload'
p469
(dp470
S'protocol'
p471
S'avr109'
p472
sS'maximum_size'
p473
S'28672'
p474
sS'speed'
p475
S'57600'
p476
sS'disable_flushing'
p477
S'true'
p478
ssS'build'
p479
(dp480
S'core'
p481
S'arduino'
p482
sS'f_cpu'
p483
S'16000000L'
p484
sS'vid'
p485
S'0x2341'
p486
sS'pid'
p487
S'0x803C'
p488
sS'variant'
p489
S'leonardo'
p490
sS'mcu'
p491
S'atmega32u4'
p492
ssS'name'
p493
S'Arduino Esplora'
p494
saa(lp495
S'micro'
p496
a(dp497
S'bootloader'
p498
(dp499
S'extended_fuses'
p500
S'0xcb'
p501
sS'high_fuses'
p502
S'0xd8'
p503
sS'low_fuses'
p504
S'0xff'
p505
sS'lock_bits'
p506
S'0x2F'
p507
sS'file'
p508
S'Caterina-Micro.hex'
p509
sS'path'
p510
S'caterina'
p511
sS'unlock_bits'
p512
S'0x3F'
p513
ssS'upload'
p514
(dp515
S'protocol'
p516
S'avr109'
p517
sS'maximum_size'
p518
S'28672'
p519
sS'speed'
p520
S'57600'
p521
sS'disable_flushing'
p522
S'true'
p523
ssS'build'
p524
(dp525
S'core'
p526
S'arduino'
p527
sS'f_cpu'
p528
S'16000000L'
p529
sS'vid'
p530
S'0x2341'
p531
sS'pid'
p532
S'0x8037'
p533
sS'variant'
p534
S'micro'
p535
sS'mcu'
p536
S'atmega32u4'
p537
ssS'name'
p538
S'Arduino Micro'
p539
saa(lp540
S'mini328'
p541
a(dp542
S'bootloader'
p543
(dp544
S'extended_fuses'
p545
S'0x05'
p546
sS'high_fuses'
p547
S'0xd8'
p548
sS'low_fuses'
p549
S'0xff'
p550
sS'lock_bits'
p551
S'0x0F'
p552
sS'file'
p553
S'optiboot_atmega328-Mini.hex'
p554
sS'path'
p555
S'optiboot'
p556
sS'unlock_bits'
p557
S'0x3F'
p558
ssS'upload'
p559
(dp560
S'protocol'
p561
S'arduino'
p562
sS'maximum_size'
p563
S'28672'
p564
sS'speed'
p565
S'115200'
p566
ssS'build'
p567
(dp568
S'core'
p569
S'arduino'
p570
sS'mcu'
p571
S'atmega328p'
p572
sS'f_cpu'
p573
S'16000000L'
p574
sS'variant'
p575
S'eightanaloginputs'
p576
ssS'name'
p577
S'Arduino Mini w/ ATmega328'
p578
saa(lp579
S'mini'
p580
a(dp581
S'bootloader'
p582
(dp583
S'extended_fuses'
p584
S'0x00'
p585
sS'high_fuses'
p586
S'0xdd'
p587
sS'low_fuses'
p588
S'0xff'
p589
sS'lock_bits'
p590
S'0x0F'
p591
sS'file'
p592
S'ATmegaBOOT_168_ng.hex'
p593
sS'path'
p594
S'atmega'
p595
sS'unlock_bits'
p596
S'0x3F'
p597
ssS'upload'
p598
(dp599
S'protocol'
p600
S'arduino'
p601
sS'maximum_size'
p602
S'14336'
p603
sS'speed'
p604
S'19200'
p605
ssS'build'
p606
(dp607
S'core'
p608
S'arduino'
p609
sS'mcu'
p610
S'atmega168'
p611
sS'f_cpu'
p612
S'16000000L'
p613
sS'variant'
p614
S'eightanaloginputs'
p615
ssS'name'
p616
S'Arduino Mini w/ ATmega168'
p617
saa(lp618
S'ethernet'
p619
a(dp620
S'bootloader'
p621
(dp622
S'extended_fuses'
p623
S'0x05'
p624
sS'high_fuses'
p625
S'0xde'
p626
sS'low_fuses'
p627
S'0xff'
p628
sS'lock_bits'
p629
S'0x0F'
p630
sS'file'
p631
S'optiboot_atmega328.hex'
p632
sS'path'
p633
S'optiboot'
p634
sS'unlock_bits'
p635
S'0x3F'
p636
ssS'upload'
p637
(dp638
S'protocol'
p639
S'arduino'
p640
sS'maximum_size'
p641
S'32256'
p642
sS'speed'
p643
S'115200'
p644
ssS'build'
p645
(dp646
S'variant'
p647
S'standard'
p648
sS'mcu'
p649
S'atmega328p'
p650
sS'f_cpu'
p651
S'16000000L'
p652
sS'core'
p653
S'arduino'
p654
ssS'name'
p655
S'Arduino Ethernet'
p656
saa(lp657
S'fio'
p658
a(dp659
S'bootloader'
p660
(dp661
S'extended_fuses'
p662
S'0x05'
p663
sS'high_fuses'
p664
S'0xDA'
p665
sS'low_fuses'
p666
S'0xFF'
p667
sS'lock_bits'
p668
S'0x0F'
p669
sS'file'
p670
S'ATmegaBOOT_168_atmega328_pro_8MHz.hex'
p671
sS'path'
p672
S'arduino:atmega'
p673
sS'unlock_bits'
p674
S'0x3F'
p675
ssS'upload'
p676
(dp677
S'protocol'
p678
S'arduino'
p679
sS'maximum_size'
p680
S'30720'
p681
sS'speed'
p682
S'57600'
p683
ssS'build'
p684
(dp685
S'core'
p686
S'arduino'
p687
sS'mcu'
p688
S'atmega328p'
p689
sS'f_cpu'
p690
S'8000000L'
p691
sS'variant'
p692
S'eightanaloginputs'
p693
ssS'name'
p694
S'Arduino Fio'
p695
saa(lp696
S'bt328'
p697
a(dp698
S'bootloader'
p699
(dp700
S'extended_fuses'
p701
S'0x05'
p702
sS'high_fuses'
p703
S'0xd8'
p704
sS'low_fuses'
p705
S'0xff'
p706
sS'lock_bits'
p707
S'0x0F'
p708
sS'file'
p709
S'ATmegaBOOT_168_atmega328_bt.hex'
p710
sS'path'
p711
S'bt'
p712
sS'unlock_bits'
p713
S'0x3F'
p714
ssS'upload'
p715
(dp716
S'protocol'
p717
S'arduino'
p718
sS'maximum_size'
p719
S'28672'
p720
sS'speed'
p721
S'19200'
p722
sS'disable_flushing'
p723
S'true'
p724
ssS'build'
p725
(dp726
S'core'
p727
S'arduino'
p728
sS'mcu'
p729
S'atmega328p'
p730
sS'f_cpu'
p731
S'16000000L'
p732
sS'variant'
p733
S'eightanaloginputs'
p734
ssS'name'
p735
S'Arduino BT w/ ATmega328'
p736
saa(lp737
S'bt'
p738
a(dp739
S'bootloader'
p740
(dp741
S'extended_fuses'
p742
S'0x00'
p743
sS'high_fuses'
p744
S'0xdd'
p745
sS'low_fuses'
p746
S'0xff'
p747
sS'lock_bits'
p748
S'0x0F'
p749
sS'file'
p750
S'ATmegaBOOT_168.hex'
p751
sS'path'
p752
S'bt'
p753
sS'unlock_bits'
p754
S'0x3F'
p755
ssS'upload'
p756
(dp757
S'protocol'
p758
S'arduino'
p759
sS'maximum_size'
p760
S'14336'
p761
sS'speed'
p762
S'19200'
p763
sS'disable_flushing'
p764
S'true'
p765
ssS'build'
p766
(dp767
S'core'
p768
S'arduino'
p769
sS'mcu'
p770
S'atmega168'
p771
sS'f_cpu'
p772
S'16000000L'
p773
sS'variant'
p774
S'eightanaloginputs'
p775
ssS'name'
p776
S'Arduino BT w/ ATmega168'
p777
saa(lp778
S'LilyPadUSB'
p779
a(dp780
S'bootloader'
p781
(dp782
S'extended_fuses'
p783
S'0xce'
p784
sS'high_fuses'
p785
S'0xd8'
p786
sS'low_fuses'
p787
S'0xff'
p788
sS'lock_bits'
p789
S'0x2F'
p790
sS'file'
p791
S'Caterina-LilyPadUSB.hex'
p792
sS'path'
p793
S'caterina-LilyPadUSB'
p794
sS'unlock_bits'
p795
S'0x3F'
p796
ssS'upload'
p797
(dp798
S'protocol'
p799
S'avr109'
p800
sS'maximum_size'
p801
S'28672'
p802
sS'speed'
p803
S'57600'
p804
sS'disable_flushing'
p805
S'true'
p806
ssS'build'
p807
(dp808
S'core'
p809
S'arduino'
p810
sS'f_cpu'
p811
S'8000000L'
p812
sS'vid'
p813
S'0x1B4F'
p814
sS'pid'
p815
S'0x9208'
p816
sS'variant'
p817
S'leonardo'
p818
sS'mcu'
p819
S'atmega32u4'
p820
ssS'name'
p821
S'LilyPad Arduino USB'
p822
saa(lp823
S'lilypad328'
p824
a(dp825
S'bootloader'
p826
(dp827
S'extended_fuses'
p828
S'0x05'
p829
sS'high_fuses'
p830
S'0xDA'
p831
sS'low_fuses'
p832
S'0xFF'
p833
sS'lock_bits'
p834
S'0x0F'
p835
sS'file'
p836
S'ATmegaBOOT_168_atmega328_pro_8MHz.hex'
p837
sS'path'
p838
S'atmega'
p839
sS'unlock_bits'
p840
S'0x3F'
p841
ssS'upload'
p842
(dp843
S'protocol'
p844
S'arduino'
p845
sS'maximum_size'
p846
S'30720'
p847
sS'speed'
p848
S'57600'
p849
ssS'build'
p850
(dp851
S'core'
p852
S'arduino'
p853
sS'mcu'
p854
S'atmega328p'
p855
sS'f_cpu'
p856
S'8000000L'
p857
sS'variant'
p858
S'standard'
p859
ssS'name'
p860
S'LilyPad Arduino w/ ATmega328'
p861
saa(lp862
S'lilypad'
p863
a(dp864
S'bootloader'
p865
(dp866
S'extended_fuses'
p867
S'0x00'
p868
sS'high_fuses'
p869
S'0xdd'
p870
sS'low_fuses'
p871
S'0xe2'
p872
sS'lock_bits'
p873
S'0x0F'
p874
sS'file'
p875
S'LilyPadBOOT_168.hex'
p876
sS'path'
p877
S'lilypad'
p878
sS'unlock_bits'
p879
S'0x3F'
p880
ssS'upload'
p881
(dp882
S'protocol'
p883
S'arduino'
p884
sS'maximum_size'
p885
S'14336'
p886
sS'speed'
p887
S'19200'
p888
ssS'build'
p889
(dp890
S'core'
p891
S'arduino'
p892
sS'mcu'
p893
S'atmega168'
p894
sS'f_cpu'
p895
S'8000000L'
p896
sS'variant'
p897
S'standard'
p898
ssS'name'
p899
S'LilyPad Arduino w/ ATmega168'
p900
saa(lp901
S'pro5v328'
p902
a(dp903
S'bootloader'
p904
(dp905
S'extended_fuses'
p906
S'0x05'
p907
sS'high_fuses'
p908
S'0xDA'
p909
sS'low_fuses'
p910
S'0xFF'
p911
sS'lock_bits'
p912
S'0x0F'
p913
sS'file'
p914
S'ATmegaBOOT_168_atmega328.hex'
p915
sS'path'
p916
S'atmega'
p917
sS'unlock_bits'
p918
S'0x3F'
p919
ssS'upload'
p920
(dp921
S'protocol'
p922
S'arduino'
p923
sS'maximum_size'
p924
S'30720'
p925
sS'speed'
p926
S'57600'
p927
ssS'build'
p928
(dp929
S'core'
p930
S'arduino'
p931
sS'mcu'
p932
S'atmega328p'
p933
sS'f_cpu'
p934
S'16000000L'
p935
sS'variant'
p936
S'standard'
p937
ssS'name'
p938
S'Arduino Pro or Pro Mini (5V, 16 MHz) w/ ATmega328'
p939
saa(lp940
S'pro5v'
p941
a(dp942
S'bootloader'
p943
(dp944
S'extended_fuses'
p945
S'0x00'
p946
sS'high_fuses'
p947
S'0xdd'
p948
sS'low_fuses'
p949
S'0xff'
p950
sS'lock_bits'
p951
S'0x0F'
p952
sS'file'
p953
S'ATmegaBOOT_168_diecimila.hex'
p954
sS'path'
p955
S'atmega'
p956
sS'unlock_bits'
p957
S'0x3F'
p958
ssS'upload'
p959
(dp960
S'protocol'
p961
S'arduino'
p962
sS'maximum_size'
p963
S'14336'
p964
sS'speed'
p965
S'19200'
p966
ssS'build'
p967
(dp968
S'core'
p969
S'arduino'
p970
sS'mcu'
p971
S'atmega168'
p972
sS'f_cpu'
p973
S'16000000L'
p974
sS'variant'
p975
S'standard'
p976
ssS'name'
p977
S'Arduino Pro or Pro Mini (5V, 16 MHz) w/ ATmega168'
p978
saa(lp979
S'pro328'
p980
a(dp981
S'bootloader'
p982
(dp983
S'extended_fuses'
p984
S'0x05'
p985
sS'high_fuses'
p986
S'0xDA'
p987
sS'low_fuses'
p988
S'0xFF'
p989
sS'lock_bits'
p990
S'0x0F'
p991
sS'file'
p992
S'ATmegaBOOT_168_atmega328_pro_8MHz.hex'
p993
sS'path'
p994
S'atmega'
p995
sS'unlock_bits'
p996
S'0x3F'
p997
ssS'upload'
p998
(dp999
S'protocol'
p1000
S'arduino'
p1001
sS'maximum_size'
p1002
S'30720'
p1003
sS'speed'
p1004
S'57600'
p1005
ssS'build'
p1006
(dp1007
S'core'
p1008
S'arduino'
p1009
sS'mcu'
p1010
S'atmega328p'
p1011
sS'f_cpu'
p1012
S'8000000L'
p1013
sS'variant'
p1014
S'standard'
p1015
ssS'name'
p1016
S'Arduino Pro or Pro Mini (3.3V, 8 MHz) w/ ATmega328'
p1017
saa(lp1018
S'pro'
p1019
a(dp1020
S'bootloader'
p1021
(dp1022
S'extended_fuses'
p1023
S'0x00'
p1024
sS'high_fuses'
p1025
S'0xdd'
p1026
sS'low_fuses'
p1027
S'0xc6'
p1028
sS'lock_bits'
p1029
S'0x0F'
p1030
sS'file'
p1031
S'ATmegaBOOT_168_pro_8MHz.hex'
p1032
sS'path'
p1033
S'atmega'
p1034
sS'unlock_bits'
p1035
S'0x3F'
p1036
ssS'upload'
p1037
(dp1038
S'protocol'
p1039
S'arduino'
p1040
sS'maximum_size'
p1041
S'14336'
p1042
sS'speed'
p1043
S'19200'
p1044
ssS'build'
p1045
(dp1046
S'core'
p1047
S'arduino'
p1048
sS'mcu'
p1049
S'atmega168'
p1050
sS'f_cpu'
p1051
S'8000000L'
p1052
sS'variant'
p1053
S'standard'
p1054
ssS'name'
p1055
S'Arduino Pro or Pro Mini (3.3V, 8 MHz) w/ ATmega168'
p1056
saa(lp1057
S'atmega168'
p1058
a(dp1059
S'bootloader'
p1060
(dp1061
S'extended_fuses'
p1062
S'0x00'
p1063
sS'high_fuses'
p1064
S'0xdd'
p1065
sS'low_fuses'
p1066
S'0xff'
p1067
sS'lock_bits'
p1068
S'0x0F'
p1069
sS'file'
p1070
S'ATmegaBOOT_168_ng.hex'
p1071
sS'path'
p1072
S'atmega'
p1073
sS'unlock_bits'
p1074
S'0x3F'
p1075
ssS'upload'
p1076
(dp1077
S'protocol'
p1078
S'arduino'
p1079
sS'maximum_size'
p1080
S'14336'
p1081
sS'speed'
p1082
S'19200'
p1083
ssS'build'
p1084
(dp1085
S'core'
p1086
S'arduino'
p1087
sS'mcu'
p1088
S'atmega168'
p1089
sS'f_cpu'
p1090
S'16000000L'
p1091
sS'variant'
p1092
S'standard'
p1093
ssS'name'
p1094
S'Arduino NG or older w/ ATmega168'
p1095
saa(lp1096
S'atmega8'
p1097
a(dp1098
S'bootloader'
p1099
(dp1100
S'high_fuses'
p1101
S'0xca'
p1102
sS'low_fuses'
p1103
S'0xdf'
p1104
sS'lock_bits'
p1105
S'0x0F'
p1106
sS'file'
p1107
S'ATmegaBOOT-prod-firmware-2009-11-07.hex'
p1108
sS'path'
p1109
S'atmega8'
p1110
sS'unlock_bits'
p1111
S'0x3F'
p1112
ssS'upload'
p1113
(dp1114
S'protocol'
p1115
S'arduino'
p1116
sS'maximum_size'
p1117
S'7168'
p1118
sS'speed'
p1119
S'19200'
p1120
ssS'build'
p1121
(dp1122
S'core'
p1123
S'arduino'
p1124
sS'mcu'
p1125
S'atmega8'
p1126
sS'f_cpu'
p1127
S'16000000L'
p1128
sS'variant'
p1129
S'standard'
p1130
ssS'name'
p1131
S'Arduino NG or older w/ ATmega8'
p1132
saa(lp1133
S'robotControl'
p1134
a(dp1135
S'bootloader'
p1136
(dp1137
S'extended_fuses'
p1138
S'0xcb'
p1139
sS'high_fuses'
p1140
S'0xd8'
p1141
sS'low_fuses'
p1142
S'0xff'
p1143
sS'lock_bits'
p1144
S'0x2F'
p1145
sS'file'
p1146
S'Caterina-Robot-Control.hex'
p1147
sS'path'
p1148
S'caterina-Arduino_Robot'
p1149
sS'unlock_bits'
p1150
S'0x3F'
p1151
ssS'upload'
p1152
(dp1153
S'protocol'
p1154
S'avr109'
p1155
sS'maximum_size'
p1156
S'28672'
p1157
sS'speed'
p1158
S'57600'
p1159
sS'disable_flushing'
p1160
S'true'
p1161
ssS'build'
p1162
(dp1163
S'core'
p1164
S'robot'
p1165
sS'f_cpu'
p1166
S'16000000L'
p1167
sS'vid'
p1168
S'0x2341'
p1169
sS'pid'
p1170
S'0x8038'
p1171
sS'variant'
p1172
S'robot_control'
p1173
sS'mcu'
p1174
S'atmega32u4'
p1175
ssS'name'
p1176
S'Arduino Robot Control'
p1177
saa(lp1178
S'robotMotor'
p1179
a(dp1180
S'bootloader'
p1181
(dp1182
S'extended_fuses'
p1183
S'0xcb'
p1184
sS'high_fuses'
p1185
S'0xd8'
p1186
sS'low_fuses'
p1187
S'0xff'
p1188
sS'lock_bits'
p1189
S'0x2F'
p1190
sS'file'
p1191
S'Caterina-Robot-Motor.hex'
p1192
sS'path'
p1193
S'caterina-Arduino_Robot'
p1194
sS'unlock_bits'
p1195
S'0x3F'
p1196
ssS'upload'
p1197
(dp1198
S'protocol'
p1199
S'avr109'
p1200
sS'maximum_size'
p1201
S'28672'
p1202
sS'speed'
p1203
S'57600'
p1204
sS'disable_flushing'
p1205
S'true'
p1206
ssS'build'
p1207
(dp1208
S'core'
p1209
S'robot'
p1210
sS'f_cpu'
p1211
S'16000000L'
p1212
sS'vid'
p1213
S'0x2341'
p1214
sS'pid'
p1215
S'0x8039'
p1216
sS'variant'
p1217
S'robot_motor'
p1218
sS'mcu'
p1219
S'atmega32u4'
p1220
ssS'name'
p1221
S'Arduino Robot Motor'
p1222
saatp1223
Rp1224
(dp1225
S'default'
p1226
S'uno'
p1227
sbtp1228
a(S'ldflags'
p1229
g2
(g3
g4
(lp1230
g6
aS'-Wl,-Os'
p1231
aS'-Wl,--gc-sections'
p1232
atp1233
Rp1234
tp1235
a.